target datalayout = "e-m:e-p270:32:32-p271:32:32-p272:64:64-i64:64-i128:128-f80:128-n8:16:32:64-S128"
target triple = "x86_64-pc-linux-gnu"

%struct.Sbd_Str_t_ = type { i32, i32, [10 x i32], i64 }
%struct.Vec_Int_t_ = type { i32, i32, ptr }

; Function Attrs: nounwind uwtable
define internal i64 @Abc_Tt6Stretch(i64 noundef %0, i32 noundef %1) #0 {
  %3 = alloca i64, align 8
  %4 = alloca i32, align 4
  store i64 %0, ptr %3, align 8
  store i32 %1, ptr %4, align 4
  %5 = load i32, ptr %4, align 4
  %6 = icmp eq i32 %5, 0
  br i1 %6, label %7, label %16

7:                                                ; preds = %2
  %8 = load i32, ptr %4, align 4
  %9 = add nsw i32 %8, 1
  store i32 %9, ptr %4, align 4
  %10 = load i64, ptr %3, align 8
  %11 = and i64 %10, 1
  %12 = load i64, ptr %3, align 8
  %13 = and i64 %12, 1
  %14 = shl i64 %13, 1
  %15 = or i64 %11, %14
  store i64 %15, ptr %3, align 8
  br label %16

16:                                               ; preds = %7, %2
  %17 = load i32, ptr %4, align 4
  %18 = icmp eq i32 %17, 1
  br i1 %18, label %19, label %28

19:                                               ; preds = %16
  %20 = load i32, ptr %4, align 4
  %21 = add nsw i32 %20, 1
  store i32 %21, ptr %4, align 4
  %22 = load i64, ptr %3, align 8
  %23 = and i64 %22, 3
  %24 = load i64, ptr %3, align 8
  %25 = and i64 %24, 3
  %26 = shl i64 %25, 2
  %27 = or i64 %23, %26
  store i64 %27, ptr %3, align 8
  br label %28

28:                                               ; preds = %19, %16
  %29 = load i32, ptr %4, align 4
  %30 = icmp eq i32 %29, 2
  br i1 %30, label %31, label %40

31:                                               ; preds = %28
  %32 = load i32, ptr %4, align 4
  %33 = add nsw i32 %32, 1
  store i32 %33, ptr %4, align 4
  %34 = load i64, ptr %3, align 8
  %35 = and i64 %34, 15
  %36 = load i64, ptr %3, align 8
  %37 = and i64 %36, 15
  %38 = shl i64 %37, 4
  %39 = or i64 %35, %38
  store i64 %39, ptr %3, align 8
  br label %40

40:                                               ; preds = %31, %28
  %41 = load i32, ptr %4, align 4
  %42 = icmp eq i32 %41, 3
  br i1 %42, label %43, label %52

43:                                               ; preds = %40
  %44 = load i32, ptr %4, align 4
  %45 = add nsw i32 %44, 1
  store i32 %45, ptr %4, align 4
  %46 = load i64, ptr %3, align 8
  %47 = and i64 %46, 255
  %48 = load i64, ptr %3, align 8
  %49 = and i64 %48, 255
  %50 = shl i64 %49, 8
  %51 = or i64 %47, %50
  store i64 %51, ptr %3, align 8
  br label %52

52:                                               ; preds = %43, %40
  %53 = load i32, ptr %4, align 4
  %54 = icmp eq i32 %53, 4
  br i1 %54, label %55, label %64

55:                                               ; preds = %52
  %56 = load i32, ptr %4, align 4
  %57 = add nsw i32 %56, 1
  store i32 %57, ptr %4, align 4
  %58 = load i64, ptr %3, align 8
  %59 = and i64 %58, 65535
  %60 = load i64, ptr %3, align 8
  %61 = and i64 %60, 65535
  %62 = shl i64 %61, 16
  %63 = or i64 %59, %62
  store i64 %63, ptr %3, align 8
  br label %64

64:                                               ; preds = %55, %52
  %65 = load i32, ptr %4, align 4
  %66 = icmp eq i32 %65, 5
  br i1 %66, label %67, label %76

67:                                               ; preds = %64
  %68 = load i32, ptr %4, align 4
  %69 = add nsw i32 %68, 1
  store i32 %69, ptr %4, align 4
  %70 = load i64, ptr %3, align 8
  %71 = and i64 %70, 4294967295
  %72 = load i64, ptr %3, align 8
  %73 = and i64 %72, 4294967295
  %74 = shl i64 %73, 32
  %75 = or i64 %71, %74
  store i64 %75, ptr %3, align 8
  br label %76

76:                                               ; preds = %67, %64
  %77 = load i64, ptr %3, align 8
  ret i64 %77
}

; Function Attrs: nounwind uwtable
define internal void @Abc_TtSetBit(ptr noundef %0, i32 noundef %1) #0 {
  %3 = alloca ptr, align 8
  %4 = alloca i32, align 4
  store ptr %0, ptr %3, align 8
  store i32 %1, ptr %4, align 4
  %5 = load i32, ptr %4, align 4
  %6 = and i32 %5, 63
  %7 = zext i32 %6 to i64
  %8 = shl i64 1, %7
  %9 = load ptr, ptr %3, align 8
  %10 = load i32, ptr %4, align 4
  %11 = ashr i32 %10, 6
  %12 = sext i32 %11 to i64
  %13 = getelementptr inbounds i64, ptr %9, i64 %12
  %14 = load i64, ptr %13, align 8
  %15 = or i64 %14, %8
  store i64 %15, ptr %13, align 8
  ret void
}

; Function Attrs: nounwind uwtable
define internal i32 @Abc_LitIsCompl(i32 noundef %0) #0 {
  %2 = alloca i32, align 4
  store i32 %0, ptr %2, align 4
  %3 = load i32, ptr %2, align 4
  %4 = and i32 %3, 1
  ret i32 %4
}

; Function Attrs: nounwind uwtable
define internal i32 @Vec_IntEntry(ptr noundef %0, i32 noundef %1) #0 {
  %3 = alloca ptr, align 8
  %4 = alloca i32, align 4
  store ptr %0, ptr %3, align 8
  store i32 %1, ptr %4, align 4
  %5 = load ptr, ptr %3, align 8
  %6 = getelementptr inbounds %struct.Vec_Int_t_, ptr %5, i32 0, i32 2
  %7 = load ptr, ptr %6, align 8
  %8 = load i32, ptr %4, align 4
  %9 = sext i32 %8 to i64
  %10 = getelementptr inbounds i32, ptr %7, i64 %9
  %11 = load i32, ptr %10, align 4
  ret i32 %11
}

; Function Attrs: nounwind uwtable
define void @Sbd_ProblemCollectSolution(i32 noundef %0, ptr noundef %1, ptr noundef %2) #0 {
  %4 = alloca i32, align 4
  %5 = alloca ptr, align 8
  %6 = alloca ptr, align 8
  %7 = alloca ptr, align 8
  %8 = alloca i32, align 4
  %9 = alloca i32, align 4
  %10 = alloca i32, align 4
  store i32 %0, ptr %4, align 4
  store ptr %1, ptr %5, align 8
  store ptr %2, ptr %6, align 8
  store i32 0, ptr %10, align 4
  %11 = load ptr, ptr %5, align 8
  store ptr %11, ptr %7, align 8
  br label %12

12:                                               ; preds = %94, %3
  %13 = load ptr, ptr %7, align 8
  %14 = load ptr, ptr %5, align 8
  %15 = load i32, ptr %4, align 4
  %16 = sext i32 %15 to i64
  %17 = getelementptr inbounds %struct.Sbd_Str_t_, ptr %14, i64 %16
  %18 = icmp ult ptr %13, %17
  br i1 %18, label %19, label %97

19:                                               ; preds = %12
  %20 = load ptr, ptr %7, align 8
  %21 = getelementptr inbounds %struct.Sbd_Str_t_, ptr %20, i32 0, i32 3
  store i64 0, ptr %21, align 8
  %22 = load ptr, ptr %7, align 8
  %23 = getelementptr inbounds %struct.Sbd_Str_t_, ptr %22, i32 0, i32 0
  %24 = load i32, ptr %23, align 8
  %25 = icmp ne i32 %24, 0
  br i1 %25, label %26, label %61

26:                                               ; preds = %19
  %27 = load ptr, ptr %7, align 8
  %28 = getelementptr inbounds %struct.Sbd_Str_t_, ptr %27, i32 0, i32 1
  %29 = load i32, ptr %28, align 4
  %30 = shl i32 1, %29
  store i32 %30, ptr %9, align 4
  store i32 0, ptr %8, align 4
  br label %31

31:                                               ; preds = %46, %26
  %32 = load i32, ptr %8, align 4
  %33 = load i32, ptr %9, align 4
  %34 = icmp slt i32 %32, %33
  br i1 %34, label %35, label %51

35:                                               ; preds = %31
  %36 = load ptr, ptr %6, align 8
  %37 = load i32, ptr %10, align 4
  %38 = call i32 @Vec_IntEntry(ptr noundef %36, i32 noundef %37)
  %39 = call i32 @Abc_LitIsCompl(i32 noundef %38)
  %40 = icmp ne i32 %39, 0
  br i1 %40, label %45, label %41

41:                                               ; preds = %35
  %42 = load ptr, ptr %7, align 8
  %43 = getelementptr inbounds %struct.Sbd_Str_t_, ptr %42, i32 0, i32 3
  %44 = load i32, ptr %8, align 4
  call void @Abc_TtSetBit(ptr noundef %43, i32 noundef %44)
  br label %45

45:                                               ; preds = %41, %35
  br label %46

46:                                               ; preds = %45
  %47 = load i32, ptr %8, align 4
  %48 = add nsw i32 %47, 1
  store i32 %48, ptr %8, align 4
  %49 = load i32, ptr %10, align 4
  %50 = add nsw i32 %49, 1
  store i32 %50, ptr %10, align 4
  br label %31, !llvm.loop !19

51:                                               ; preds = %31
  %52 = load ptr, ptr %7, align 8
  %53 = getelementptr inbounds %struct.Sbd_Str_t_, ptr %52, i32 0, i32 3
  %54 = load i64, ptr %53, align 8
  %55 = load ptr, ptr %7, align 8
  %56 = getelementptr inbounds %struct.Sbd_Str_t_, ptr %55, i32 0, i32 1
  %57 = load i32, ptr %56, align 4
  %58 = call i64 @Abc_Tt6Stretch(i64 noundef %54, i32 noundef %57)
  %59 = load ptr, ptr %7, align 8
  %60 = getelementptr inbounds %struct.Sbd_Str_t_, ptr %59, i32 0, i32 3
  store i64 %58, ptr %60, align 8
  br label %93

61:                                               ; preds = %19
  store i32 0, ptr %9, align 4
  store i32 0, ptr %8, align 4
  br label %62

62:                                               ; preds = %87, %61
  %63 = load i32, ptr %8, align 4
  %64 = load ptr, ptr %7, align 8
  %65 = getelementptr inbounds %struct.Sbd_Str_t_, ptr %64, i32 0, i32 1
  %66 = load i32, ptr %65, align 4
  %67 = icmp slt i32 %63, %66
  br i1 %67, label %68, label %92

68:                                               ; preds = %62
  %69 = load ptr, ptr %6, align 8
  %70 = load i32, ptr %10, align 4
  %71 = call i32 @Vec_IntEntry(ptr noundef %69, i32 noundef %70)
  %72 = call i32 @Abc_LitIsCompl(i32 noundef %71)
  %73 = icmp ne i32 %72, 0
  br i1 %73, label %86, label %74

74:                                               ; preds = %68
  %75 = load ptr, ptr %7, align 8
  %76 = getelementptr inbounds %struct.Sbd_Str_t_, ptr %75, i32 0, i32 2
  %77 = load i32, ptr %8, align 4
  %78 = sext i32 %77 to i64
  %79 = getelementptr inbounds [10 x i32], ptr %76, i64 0, i64 %78
  %80 = load i32, ptr %79, align 4
  %81 = sext i32 %80 to i64
  %82 = load ptr, ptr %7, align 8
  %83 = getelementptr inbounds %struct.Sbd_Str_t_, ptr %82, i32 0, i32 3
  store i64 %81, ptr %83, align 8
  %84 = load i32, ptr %9, align 4
  %85 = add nsw i32 %84, 1
  store i32 %85, ptr %9, align 4
  br label %86

86:                                               ; preds = %74, %68
  br label %87

87:                                               ; preds = %86
  %88 = load i32, ptr %8, align 4
  %89 = add nsw i32 %88, 1
  store i32 %89, ptr %8, align 4
  %90 = load i32, ptr %10, align 4
  %91 = add nsw i32 %90, 1
  store i32 %91, ptr %10, align 4
  br label %62, !llvm.loop !20

92:                                               ; preds = %62
  br label %93

93:                                               ; preds = %92, %51
  br label %94

94:                                               ; preds = %93
  %95 = load ptr, ptr %7, align 8
  %96 = getelementptr inbounds %struct.Sbd_Str_t_, ptr %95, i32 1
  store ptr %96, ptr %7, align 8
  br label %12, !llvm.loop !21

97:                                               ; preds = %12
  ret void
}