; Function Attrs: nofree norecurse nosync nounwind memory(read, argmem: readwrite, inaccessiblemem: none) uwtable
define void @Sbd_ProblemCollectSolution(i32 noundef %0, ptr noundef %1, ptr noundef readonly captures(none) %2) local_unnamed_addr #5 {
  %4 = sext i32 %0 to i64
  %5 = getelementptr inbounds %struct.Sbd_Str_t_, ptr %1, i64 %4
  %6 = icmp sgt i32 %0, 0
  br i1 %6, label %.lr.ph46, label %._crit_edge47

.lr.ph46:                                         ; preds = %3
  %7 = getelementptr i8, ptr %2, i64 8
  br label %8

8:                                                ; preds = %.lr.ph46, %.loopexit
  %.044 = phi i32 [ 0, %.lr.ph46 ], [ %.3, %.loopexit ]
  %.03243 = phi ptr [ %1, %.lr.ph46 ], [ %67, %.loopexit ]
  %9 = getelementptr inbounds nuw i8, ptr %.03243, i64 48
  store i64 0, ptr %9, align 8
  %10 = load i32, ptr %.03243, align 8
  %.not = icmp eq i32 %10, 0
  %11 = getelementptr inbounds nuw i8, ptr %.03243, i64 4
  %12 = load i32, ptr %11, align 4
  br i1 %.not, label %.preheader, label %17

.preheader:                                       ; preds = %8
  %13 = icmp sgt i32 %12, 0
  br i1 %13, label %.lr.ph41, label %.loopexit

.lr.ph41:                                         ; preds = %.preheader
  %14 = getelementptr inbounds nuw i8, ptr %.03243, i64 8
  %15 = sext i32 %.044 to i64
  %16 = zext nneg i32 %12 to i64
  br label %56

17:                                               ; preds = %8
  %.not48 = icmp eq i32 %12, 31
  br i1 %.not48, label %._crit_edge, label %.lr.ph.preheader

.lr.ph.preheader:                                 ; preds = %17
  %18 = shl nuw nsw i32 1, %12
  %19 = sext i32 %.044 to i64
  br label %.lr.ph

.lr.ph:                                           ; preds = %.lr.ph.preheader, %32
  %indvars.iv = phi i64 [ %19, %.lr.ph.preheader ], [ %indvars.iv.next, %32 ]
  %.03036 = phi i32 [ 0, %.lr.ph.preheader ], [ %33, %32 ]
  %.val35 = load ptr, ptr %7, align 8
  %20 = getelementptr inbounds i32, ptr %.val35, i64 %indvars.iv
  %21 = load i32, ptr %20, align 4
  %22 = and i32 %21, 1
  %.not34 = icmp eq i32 %22, 0
  br i1 %.not34, label %23, label %32

23:                                               ; preds = %.lr.ph
  %24 = and i32 %.03036, 63
  %25 = zext nneg i32 %24 to i64
  %26 = shl nuw i64 1, %25
  %27 = lshr i32 %.03036, 6
  %28 = zext nneg i32 %27 to i64
  %29 = getelementptr inbounds nuw i64, ptr %9, i64 %28
  %30 = load i64, ptr %29, align 8
  %31 = or i64 %30, %26
  store i64 %31, ptr %29, align 8
  br label %32

32:                                               ; preds = %.lr.ph, %23
  %33 = add nuw nsw i32 %.03036, 1
  %indvars.iv.next = add nsw i64 %indvars.iv, 1
  %exitcond.not = icmp eq i32 %33, %18
  br i1 %exitcond.not, label %._crit_edge.loopexit, label %.lr.ph, !llvm.loop !19

._crit_edge.loopexit:                             ; preds = %32
  %34 = trunc nsw i64 %indvars.iv.next to i32
  %.pre = load i64, ptr %9, align 8
  br label %._crit_edge

._crit_edge:                                      ; preds = %._crit_edge.loopexit, %17
  %35 = phi i64 [ 0, %17 ], [ %.pre, %._crit_edge.loopexit ]
  %.1.lcssa = phi i32 [ %.044, %17 ], [ %34, %._crit_edge.loopexit ]
  %36 = icmp eq i32 %12, 0
  %37 = trunc i64 %35 to i1
  %38 = select i1 %37, i64 3, i64 0
  %39 = icmp ult i32 %12, 2
  %40 = and i64 %35, 3
  %41 = select i1 %36, i64 %38, i64 %40
  %42 = mul nuw nsw i64 %41, 5
  %.126.i = select i1 %39, i64 %42, i64 %35
  %.1.i = tail call i32 @llvm.umax.i32(i32 %12, i32 2)
  %43 = icmp ult i32 %12, 3
  %44 = and i64 %.126.i, 15
  %45 = mul nuw nsw i64 %44, 17
  %.227.i = select i1 %43, i64 %45, i64 %35
  %.2.i = select i1 %43, i32 3, i32 %.1.i
  %46 = icmp eq i32 %.2.i, 3
  %47 = and i64 %.227.i, 255
  %48 = mul nuw nsw i64 %47, 257
  %.328.i = select i1 %46, i64 %48, i64 %.227.i
  %.3.i = select i1 %46, i32 4, i32 %.2.i
  %49 = icmp eq i32 %.3.i, 4
  %50 = and i64 %.328.i, 65535
  %51 = mul nuw nsw i64 %50, 65537
  %.429.i = select i1 %49, i64 %51, i64 %.328.i
  %52 = and i32 %.3.i, -2
  %53 = icmp eq i32 %52, 4
  %54 = and i64 %.429.i, 4294967295
  %55 = mul nuw i64 %54, 4294967297
  %.5.i = select i1 %53, i64 %55, i64 %.429.i
  store i64 %.5.i, ptr %9, align 8
  br label %.loopexit

56:                                               ; preds = %.lr.ph41, %64
  %indvars.iv53 = phi i64 [ 0, %.lr.ph41 ], [ %indvars.iv.next54, %64 ]
  %indvars.iv51 = phi i64 [ %15, %.lr.ph41 ], [ %indvars.iv.next52, %64 ]
  %.val = load ptr, ptr %7, align 8
  %57 = getelementptr inbounds i32, ptr %.val, i64 %indvars.iv51
  %58 = load i32, ptr %57, align 4
  %59 = and i32 %58, 1
  %.not33 = icmp eq i32 %59, 0
  br i1 %.not33, label %60, label %64

60:                                               ; preds = %56
  %61 = getelementptr inbounds nuw [10 x i32], ptr %14, i64 0, i64 %indvars.iv53
  %62 = load i32, ptr %61, align 4
  %63 = sext i32 %62 to i64
  store i64 %63, ptr %9, align 8
  br label %64

64:                                               ; preds = %56, %60
  %indvars.iv.next54 = add nuw nsw i64 %indvars.iv53, 1
  %indvars.iv.next52 = add nsw i64 %indvars.iv51, 1
  %65 = icmp samesign ult i64 %indvars.iv.next54, %16
  br i1 %65, label %56, label %.loopexit.loopexit, !llvm.loop !20

.loopexit.loopexit:                               ; preds = %64
  %66 = trunc nsw i64 %indvars.iv.next52 to i32
  br label %.loopexit

.loopexit:                                        ; preds = %.loopexit.loopexit, %.preheader, %._crit_edge
  %.3 = phi i32 [ %.1.lcssa, %._crit_edge ], [ %.044, %.preheader ], [ %66, %.loopexit.loopexit ]
  %67 = getelementptr inbounds nuw i8, ptr %.03243, i64 56
  %68 = icmp ult ptr %67, %5
  br i1 %68, label %8, label %._crit_edge47, !llvm.loop !21

._crit_edge47:                                    ; preds = %.loopexit, %3
  ret void
}